target datalayout = "e-m:e-p270:32:32-p271:32:32-p272:64:64-i64:64-i128:128-f80:128-n8:16:32:64-S128"
target triple = "x86_64-pc-linux-gnu"

%struct.AVCodecContext = type { ptr, i32, i32, ptr, i32, i32, ptr, ptr, ptr, i64, i32, i32, ptr, i32, %struct.AVRational, %struct.AVRational, %struct.AVRational, i32, i32, i32, i32, i32, %struct.AVRational, i32, i32, i32, i32, i32, i32, i32, i32, i32, i32, i32, ptr, ptr, i32, float, float, float, float, float, float, float, float, float, i32, i32, i32, i32, i32, i32, i32, i32, i32, i32, i32, i32, ptr, ptr, ptr, i32, i32, i32, i32, i32, i32, i32, i32, i32, i32, %struct.AVChannelLayout, i32, i32, i32, i32, i32, i32, i32, i32, ptr, i32, i32, i32, float, float, i32, i32, i32, i32, i32, ptr, i64, i64, float, float, i32, i32, ptr, ptr, i32, i32, i32, i32, i32, ptr, ptr, ptr, ptr, i32, i32, [8 x i64], i32, i32, i32, i32, i32, i32, i32, ptr, ptr, i32, i32, i32, i32, i32, i32, i32, i32, i32, i32, ptr, ptr, i32, i32, ptr, ptr, ptr, ptr, i32, i32, i64, i32, i32, i64, ptr, i64, ptr, i32, ptr, i32 }
%struct.AVRational = type { i32, i32 }
%struct.AVChannelLayout = type { i32, i32, %union.anon.0, ptr }
%union.anon.0 = type { i64 }
%struct.GetByteContext = type { ptr, ptr, ptr }
%struct.WavpackFrameContext = type { ptr, i32, i32, i32, i32, i32, %struct.GetBitContext, i32, i32, %struct.GetBitContext, i32, i32, [16 x %struct.Decorr], i32, i32, i32, i32, i32, i32, i32, i32, i32, i32, i32, i32, i32, i32, i32, [2 x %struct.WvChannel], %struct.GetByteContext, [256 x i32], [40960 x i8], [32 x [256 x i16]], [32 x [256 x i8]], [32 x ptr] }
%struct.GetBitContext = type { ptr, ptr, i32, i32, i32 }
%struct.Decorr = type { i32, i32, i32, i32, [8 x i32], [8 x i32], i32, i32 }
%struct.WvChannel = type { [3 x i32], i32, i32, i32, i32 }

@.str.40 = private unnamed_addr constant [11 x i8] c"CRC error\0A\00", align 1
@.str.41 = private unnamed_addr constant [22 x i8] c"Extra bits CRC error\0A\00", align 1

; Function Attrs: alwaysinline nounwind uwtable
define internal i32 @bytestream_get_byte(ptr noundef %0) #6 {
  %2 = alloca ptr, align 8
  store ptr %0, ptr %2, align 8, !tbaa !176
  %3 = load ptr, ptr %2, align 8, !tbaa !176
  %4 = load ptr, ptr %3, align 8, !tbaa !49
  %5 = getelementptr inbounds i8, ptr %4, i64 1
  store ptr %5, ptr %3, align 8, !tbaa !49
  %6 = load ptr, ptr %2, align 8, !tbaa !176
  %7 = load ptr, ptr %6, align 8, !tbaa !49
  %8 = getelementptr inbounds i8, ptr %7, i64 -1
  %9 = getelementptr inbounds i8, ptr %8, i64 0
  %10 = load i8, ptr %9, align 1, !tbaa !53
  %11 = zext i8 %10 to i32
  ret i32 %11
}

; Function Attrs: alwaysinline nounwind uwtable
define internal i32 @bytestream2_get_byteu(ptr noundef %0) #6 {
  %2 = alloca ptr, align 8
  store ptr %0, ptr %2, align 8, !tbaa !130
  %3 = load ptr, ptr %2, align 8, !tbaa !130
  %4 = getelementptr inbounds nuw %struct.GetByteContext, ptr %3, i32 0, i32 0
  %5 = call i32 @bytestream_get_byte(ptr noundef %4)
  ret i32 %5
}

; Function Attrs: inlinehint nounwind uwtable
define internal i32 @wv_check_crc(ptr noundef %0, i32 noundef %1, i32 noundef %2) #4 {
  %4 = alloca i32, align 4
  %5 = alloca ptr, align 8
  %6 = alloca i32, align 4
  %7 = alloca i32, align 4
  store ptr %0, ptr %5, align 8, !tbaa !68
  store i32 %1, ptr %6, align 4, !tbaa !51
  store i32 %2, ptr %7, align 4, !tbaa !51
  %8 = load i32, ptr %6, align 4, !tbaa !51
  %9 = load ptr, ptr %5, align 8, !tbaa !68
  %10 = getelementptr inbounds nuw %struct.WavpackFrameContext, ptr %9, i32 0, i32 5
  %11 = load i32, ptr %10, align 8, !tbaa !89
  %12 = icmp ne i32 %8, %11
  br i1 %12, label %13, label %17

13:                                               ; preds = %3
  %14 = load ptr, ptr %5, align 8, !tbaa !68
  %15 = getelementptr inbounds nuw %struct.WavpackFrameContext, ptr %14, i32 0, i32 0
  %16 = load ptr, ptr %15, align 8, !tbaa !129
  call void (ptr, i32, ptr, ...) @av_log(ptr noundef %16, i32 noundef 16, ptr noundef @.str.40)
  store i32 -1094995529, ptr %4, align 4
  br label %33

17:                                               ; preds = %3
  %18 = load ptr, ptr %5, align 8, !tbaa !68
  %19 = getelementptr inbounds nuw %struct.WavpackFrameContext, ptr %18, i32 0, i32 7
  %20 = load i32, ptr %19, align 8, !tbaa !77
  %21 = icmp ne i32 %20, 0
  br i1 %21, label %22, label %32

22:                                               ; preds = %17
  %23 = load i32, ptr %7, align 4, !tbaa !51
  %24 = load ptr, ptr %5, align 8, !tbaa !68
  %25 = getelementptr inbounds nuw %struct.WavpackFrameContext, ptr %24, i32 0, i32 8
  %26 = load i32, ptr %25, align 4, !tbaa !117
  %27 = icmp ne i32 %23, %26
  br i1 %27, label %28, label %32

28:                                               ; preds = %22
  %29 = load ptr, ptr %5, align 8, !tbaa !68
  %30 = getelementptr inbounds nuw %struct.WavpackFrameContext, ptr %29, i32 0, i32 0
  %31 = load ptr, ptr %30, align 8, !tbaa !129
  call void (ptr, i32, ptr, ...) @av_log(ptr noundef %31, i32 noundef 16, ptr noundef @.str.41)
  store i32 -1094995529, ptr %4, align 4
  br label %33

32:                                               ; preds = %22, %17
  store i32 0, ptr %4, align 4
  br label %33

33:                                               ; preds = %32, %28, %13
  %34 = load i32, ptr %4, align 4
  ret i32 %34
}

; Function Attrs: alwaysinline nounwind uwtable
define internal i32 @bytestream2_get_byte(ptr noundef %0) #6 {
  %2 = alloca i32, align 4
  %3 = alloca ptr, align 8
  store ptr %0, ptr %3, align 8, !tbaa !130
  %4 = load ptr, ptr %3, align 8, !tbaa !130
  %5 = getelementptr inbounds nuw %struct.GetByteContext, ptr %4, i32 0, i32 1
  %6 = load ptr, ptr %5, align 8, !tbaa !133
  %7 = load ptr, ptr %3, align 8, !tbaa !130
  %8 = getelementptr inbounds nuw %struct.GetByteContext, ptr %7, i32 0, i32 0
  %9 = load ptr, ptr %8, align 8, !tbaa !116
  %10 = ptrtoint ptr %6 to i64
  %11 = ptrtoint ptr %9 to i64
  %12 = sub i64 %10, %11
  %13 = icmp slt i64 %12, 1
  br i1 %13, label %14, label %20

14:                                               ; preds = %1
  %15 = load ptr, ptr %3, align 8, !tbaa !130
  %16 = getelementptr inbounds nuw %struct.GetByteContext, ptr %15, i32 0, i32 1
  %17 = load ptr, ptr %16, align 8, !tbaa !133
  %18 = load ptr, ptr %3, align 8, !tbaa !130
  %19 = getelementptr inbounds nuw %struct.GetByteContext, ptr %18, i32 0, i32 0
  store ptr %17, ptr %19, align 8, !tbaa !116
  store i32 0, ptr %2, align 4
  br label %23

20:                                               ; preds = %1
  %21 = load ptr, ptr %3, align 8, !tbaa !130
  %22 = call i32 @bytestream2_get_byteu(ptr noundef %21)
  store i32 %22, ptr %2, align 4
  br label %23

23:                                               ; preds = %20, %14
  %24 = load i32, ptr %2, align 4
  ret i32 %24
}

; Function Attrs: alwaysinline nounwind uwtable
define internal i32 @bytestream2_get_bytes_left(ptr noundef %0) #6 {
  %2 = alloca ptr, align 8
  store ptr %0, ptr %2, align 8, !tbaa !130
  %3 = load ptr, ptr %2, align 8, !tbaa !130
  %4 = getelementptr inbounds nuw %struct.GetByteContext, ptr %3, i32 0, i32 1
  %5 = load ptr, ptr %4, align 8, !tbaa !133
  %6 = load ptr, ptr %2, align 8, !tbaa !130
  %7 = getelementptr inbounds nuw %struct.GetByteContext, ptr %6, i32 0, i32 0
  %8 = load ptr, ptr %7, align 8, !tbaa !116
  %9 = ptrtoint ptr %5 to i64
  %10 = ptrtoint ptr %8 to i64
  %11 = sub i64 %9, %10
  %12 = trunc i64 %11 to i32
  ret i32 %12
}

; Function Attrs: nounwind uwtable
define internal i32 @wv_unpack_dsd_copy(ptr noundef %0, ptr noundef %1, ptr noundef %2) #0 {
  %4 = alloca i32, align 4
  %5 = alloca ptr, align 8
  %6 = alloca ptr, align 8
  %7 = alloca ptr, align 8
  %8 = alloca ptr, align 8
  %9 = alloca ptr, align 8
  %10 = alloca i32, align 4
  %11 = alloca i32, align 4
  %12 = alloca i32, align 4
  store ptr %0, ptr %5, align 8, !tbaa !68
  store ptr %1, ptr %6, align 8, !tbaa !49
  store ptr %2, ptr %7, align 8, !tbaa !49
  call void @llvm.lifetime.start.p0(i64 8, ptr %8) #11
  %13 = load ptr, ptr %6, align 8, !tbaa !49
  store ptr %13, ptr %8, align 8, !tbaa !49
  call void @llvm.lifetime.start.p0(i64 8, ptr %9) #11
  %14 = load ptr, ptr %7, align 8, !tbaa !49
  store ptr %14, ptr %9, align 8, !tbaa !49
  call void @llvm.lifetime.start.p0(i64 4, ptr %10) #11
  %15 = load ptr, ptr %5, align 8, !tbaa !68
  %16 = getelementptr inbounds nuw %struct.WavpackFrameContext, ptr %15, i32 0, i32 10
  %17 = load i32, ptr %16, align 8, !tbaa !78
  store i32 %17, ptr %10, align 4, !tbaa !51
  call void @llvm.lifetime.start.p0(i64 4, ptr %11) #11
  store i32 -1, ptr %11, align 4, !tbaa !51
  %18 = load ptr, ptr %5, align 8, !tbaa !68
  %19 = getelementptr inbounds nuw %struct.WavpackFrameContext, ptr %18, i32 0, i32 29
  %20 = call i32 @bytestream2_get_bytes_left(ptr noundef %19)
  %21 = load i32, ptr %10, align 4, !tbaa !51
  %22 = load ptr, ptr %9, align 8, !tbaa !49
  %23 = icmp ne ptr %22, null
  %24 = select i1 %23, i32 2, i32 1
  %25 = mul nsw i32 %21, %24
  %26 = icmp ne i32 %20, %25
  br i1 %26, label %27, label %28

27:                                               ; preds = %3
  store i32 -1094995529, ptr %4, align 4
  store i32 1, ptr %12, align 4
  br label %96

28:                                               ; preds = %3
  br label %29

29:                                               ; preds = %63, %28
  %30 = load i32, ptr %10, align 4, !tbaa !51
  %31 = add nsw i32 %30, -1
  store i32 %31, ptr %10, align 4, !tbaa !51
  %32 = icmp ne i32 %30, 0
  br i1 %32, label %33, label %64

33:                                               ; preds = %29
  %34 = load i32, ptr %11, align 4, !tbaa !51
  %35 = shl i32 %34, 1
  %36 = load ptr, ptr %5, align 8, !tbaa !68
  %37 = getelementptr inbounds nuw %struct.WavpackFrameContext, ptr %36, i32 0, i32 29
  %38 = call i32 @bytestream2_get_byte(ptr noundef %37)
  %39 = trunc i32 %38 to i8
  %40 = load ptr, ptr %8, align 8, !tbaa !49
  store i8 %39, ptr %40, align 1, !tbaa !53
  %41 = zext i8 %39 to i32
  %42 = add i32 %35, %41
  %43 = load i32, ptr %11, align 4, !tbaa !51
  %44 = add i32 %43, %42
  store i32 %44, ptr %11, align 4, !tbaa !51
  %45 = load ptr, ptr %8, align 8, !tbaa !49
  %46 = getelementptr inbounds i8, ptr %45, i64 4
  store ptr %46, ptr %8, align 8, !tbaa !49
  %47 = load ptr, ptr %9, align 8, !tbaa !49
  %48 = icmp ne ptr %47, null
  br i1 %48, label %49, label %63

49:                                               ; preds = %33
  %50 = load i32, ptr %11, align 4, !tbaa !51
  %51 = shl i32 %50, 1
  %52 = load ptr, ptr %5, align 8, !tbaa !68
  %53 = getelementptr inbounds nuw %struct.WavpackFrameContext, ptr %52, i32 0, i32 29
  %54 = call i32 @bytestream2_get_byte(ptr noundef %53)
  %55 = trunc i32 %54 to i8
  %56 = load ptr, ptr %9, align 8, !tbaa !49
  store i8 %55, ptr %56, align 1, !tbaa !53
  %57 = zext i8 %55 to i32
  %58 = add i32 %51, %57
  %59 = load i32, ptr %11, align 4, !tbaa !51
  %60 = add i32 %59, %58
  store i32 %60, ptr %11, align 4, !tbaa !51
  %61 = load ptr, ptr %9, align 8, !tbaa !49
  %62 = getelementptr inbounds i8, ptr %61, i64 4
  store ptr %62, ptr %9, align 8, !tbaa !49
  br label %63

63:                                               ; preds = %49, %33
  br label %29, !llvm.loop !164

64:                                               ; preds = %29
  %65 = load ptr, ptr %5, align 8, !tbaa !68
  %66 = load i32, ptr %11, align 4, !tbaa !51
  %67 = call i32 @wv_check_crc(ptr noundef %65, i32 noundef %66, i32 noundef 0)
  %68 = icmp ne i32 %67, 0
  br i1 %68, label %69, label %95

69:                                               ; preds = %64
  %70 = load ptr, ptr %5, align 8, !tbaa !68
  %71 = getelementptr inbounds nuw %struct.WavpackFrameContext, ptr %70, i32 0, i32 0
  %72 = load ptr, ptr %71, align 8, !tbaa !129
  %73 = getelementptr inbounds nuw %struct.AVCodecContext, ptr %72, i32 0, i32 104
  %74 = load i32, ptr %73, align 8, !tbaa !126
  %75 = and i32 %74, 1
  %76 = icmp ne i32 %75, 0
  br i1 %76, label %77, label %78

77:                                               ; preds = %69
  store i32 -1094995529, ptr %4, align 4
  store i32 1, ptr %12, align 4
  br label %96

78:                                               ; preds = %69
  %79 = load ptr, ptr %6, align 8, !tbaa !49
  %80 = load ptr, ptr %5, align 8, !tbaa !68
  %81 = getelementptr inbounds nuw %struct.WavpackFrameContext, ptr %80, i32 0, i32 10
  %82 = load i32, ptr %81, align 8, !tbaa !78
  %83 = mul nsw i32 %82, 4
  %84 = sext i32 %83 to i64
  call void @llvm.memset.p0.i64(ptr align 1 %79, i8 105, i64 %84, i1 false)
  %85 = load ptr, ptr %9, align 8, !tbaa !49
  %86 = icmp ne ptr %85, null
  br i1 %86, label %87, label %94

87:                                               ; preds = %78
  %88 = load ptr, ptr %7, align 8, !tbaa !49
  %89 = load ptr, ptr %5, align 8, !tbaa !68
  %90 = getelementptr inbounds nuw %struct.WavpackFrameContext, ptr %89, i32 0, i32 10
  %91 = load i32, ptr %90, align 8, !tbaa !78
  %92 = mul nsw i32 %91, 4
  %93 = sext i32 %92 to i64
  call void @llvm.memset.p0.i64(ptr align 1 %88, i8 105, i64 %93, i1 false)
  br label %94

94:                                               ; preds = %87, %78
  br label %95

95:                                               ; preds = %94, %64
  store i32 0, ptr %4, align 4
  store i32 1, ptr %12, align 4
  br label %96

96:                                               ; preds = %95, %77, %27
  call void @llvm.lifetime.end.p0(i64 4, ptr %11) #11
  call void @llvm.lifetime.end.p0(i64 4, ptr %10) #11
  call void @llvm.lifetime.end.p0(i64 8, ptr %9) #11
  call void @llvm.lifetime.end.p0(i64 8, ptr %8) #11
  %97 = load i32, ptr %4, align 4
  ret i32 %97
}