; Function Attrs: nounwind uwtable
define internal fastcc range(i32 -1094995529, 1) i32 @wv_unpack_dsd_copy(ptr noundef captures(none) %0, ptr noundef writeonly captures(none) %1, ptr noundef writeonly captures(address) %2) unnamed_addr #0 {
  %4 = getelementptr inbounds nuw i8, ptr %0, i64 104
  %5 = load i32, ptr %4, align 8, !tbaa !53
  %6 = getelementptr inbounds nuw i8, ptr %0, i64 1640
  %7 = getelementptr inbounds nuw i8, ptr %0, i64 1648
  %8 = load ptr, ptr %7, align 8, !tbaa !102
  %9 = load ptr, ptr %6, align 8, !tbaa !100
  %10 = ptrtoint ptr %8 to i64
  %11 = ptrtoint ptr %9 to i64
  %12 = sub i64 %10, %11
  %13 = trunc i64 %12 to i32
  %.not = icmp ne ptr %2, null
  %14 = zext i1 %.not to i32
  %15 = shl i32 %5, %14
  %.not31 = icmp eq i32 %15, %13
  br i1 %.not31, label %.preheader, label %wv_check_crc.exit.thread

.preheader:                                       ; preds = %3
  %.not3242 = icmp eq i32 %5, 0
  br i1 %.not3242, label %._crit_edge, label %.lr.ph

.lr.ph:                                           ; preds = %.preheader, %48
  %.in = phi i32 [ %16, %48 ], [ %5, %.preheader ]
  %.045 = phi i32 [ %.1, %48 ], [ -1, %.preheader ]
  %.02744 = phi ptr [ %.128, %48 ], [ %2, %.preheader ]
  %.02943 = phi ptr [ %31, %48 ], [ %1, %.preheader ]
  %16 = add nsw i32 %.in, -1
  %17 = load ptr, ptr %7, align 8, !tbaa !102
  %18 = load ptr, ptr %6, align 8, !tbaa !100
  %19 = ptrtoint ptr %17 to i64
  %20 = ptrtoint ptr %18 to i64
  %21 = sub i64 %19, %20
  %22 = icmp slt i64 %21, 1
  br i1 %22, label %23, label %24

23:                                               ; preds = %.lr.ph
  store ptr %17, ptr %6, align 8, !tbaa !100
  br label %bytestream2_get_byte.exit38

24:                                               ; preds = %.lr.ph
  %25 = getelementptr inbounds nuw i8, ptr %18, i64 1
  store ptr %25, ptr %6, align 8, !tbaa !116
  %26 = load i8, ptr %18, align 1, !tbaa !43
  %27 = zext i8 %26 to i32
  br label %bytestream2_get_byte.exit38

bytestream2_get_byte.exit38:                      ; preds = %23, %24
  %.0.i37 = phi i32 [ 0, %23 ], [ %27, %24 ]
  %28 = trunc nuw i32 %.0.i37 to i8
  store i8 %28, ptr %.02943, align 1, !tbaa !43
  %29 = mul i32 %.045, 3
  %30 = add i32 %29, %.0.i37
  %31 = getelementptr inbounds nuw i8, ptr %.02943, i64 4
  %.not36 = icmp eq ptr %.02744, null
  br i1 %.not36, label %48, label %32

32:                                               ; preds = %bytestream2_get_byte.exit38
  %33 = load ptr, ptr %7, align 8, !tbaa !102
  %34 = load ptr, ptr %6, align 8, !tbaa !100
  %35 = ptrtoint ptr %33 to i64
  %36 = ptrtoint ptr %34 to i64
  %37 = sub i64 %35, %36
  %38 = icmp slt i64 %37, 1
  br i1 %38, label %39, label %40

39:                                               ; preds = %32
  store ptr %33, ptr %6, align 8, !tbaa !100
  br label %bytestream2_get_byte.exit

40:                                               ; preds = %32
  %41 = getelementptr inbounds nuw i8, ptr %34, i64 1
  store ptr %41, ptr %6, align 8, !tbaa !116
  %42 = load i8, ptr %34, align 1, !tbaa !43
  %43 = zext i8 %42 to i32
  br label %bytestream2_get_byte.exit

bytestream2_get_byte.exit:                        ; preds = %39, %40
  %.0.i = phi i32 [ 0, %39 ], [ %43, %40 ]
  %44 = trunc nuw i32 %.0.i to i8
  store i8 %44, ptr %.02744, align 1, !tbaa !43
  %45 = mul i32 %30, 3
  %46 = add i32 %45, %.0.i
  %47 = getelementptr inbounds nuw i8, ptr %.02744, i64 4
  br label %48

48:                                               ; preds = %bytestream2_get_byte.exit, %bytestream2_get_byte.exit38
  %.128 = phi ptr [ %47, %bytestream2_get_byte.exit ], [ null, %bytestream2_get_byte.exit38 ]
  %.1 = phi i32 [ %46, %bytestream2_get_byte.exit ], [ %30, %bytestream2_get_byte.exit38 ]
  %.not32 = icmp eq i32 %16, 0
  br i1 %.not32, label %._crit_edge, label %.lr.ph, !llvm.loop !150

._crit_edge:                                      ; preds = %48, %.preheader
  %.027.lcssa = phi ptr [ %2, %.preheader ], [ %.128, %48 ]
  %.0.lcssa = phi i32 [ -1, %.preheader ], [ %.1, %48 ]
  %49 = getelementptr inbounds nuw i8, ptr %0, i64 24
  %50 = load i32, ptr %49, align 8, !tbaa !64
  %.not.i = icmp eq i32 %.0.lcssa, %50
  br i1 %.not.i, label %51, label %57

51:                                               ; preds = %._crit_edge
  %52 = getelementptr inbounds nuw i8, ptr %0, i64 64
  %53 = load i32, ptr %52, align 8, !tbaa !49
  %.not7.i = icmp eq i32 %53, 0
  br i1 %.not7.i, label %wv_check_crc.exit.thread, label %54

54:                                               ; preds = %51
  %55 = getelementptr inbounds nuw i8, ptr %0, i64 68
  %56 = load i32, ptr %55, align 4, !tbaa !103
  %.not8.i = icmp eq i32 %56, 0
  br i1 %.not8.i, label %wv_check_crc.exit.thread, label %57

57:                                               ; preds = %54, %._crit_edge
  %.str.41.sink.i = phi ptr [ @.str.40, %._crit_edge ], [ @.str.41, %54 ]
  %58 = load ptr, ptr %0, align 8, !tbaa !122
  tail call void (ptr, i32, ptr, ...) @av_log(ptr noundef %58, i32 noundef 16, ptr noundef nonnull %.str.41.sink.i) #12
  %59 = load ptr, ptr %0, align 8, !tbaa !122
  %60 = getelementptr inbounds nuw i8, ptr %59, i64 528
  %61 = load i32, ptr %60, align 8, !tbaa !114
  %62 = and i32 %61, 1
  %.not34 = icmp eq i32 %62, 0
  br i1 %.not34, label %63, label %wv_check_crc.exit.thread

63:                                               ; preds = %57
  %64 = load i32, ptr %4, align 8, !tbaa !53
  %65 = shl nsw i32 %64, 2
  %66 = sext i32 %65 to i64
  tail call void @llvm.memset.p0.i64(ptr align 1 %1, i8 105, i64 %66, i1 false)
  %.not35 = icmp eq ptr %.027.lcssa, null
  br i1 %.not35, label %wv_check_crc.exit.thread, label %67

67:                                               ; preds = %63
  %68 = load i32, ptr %4, align 8, !tbaa !53
  %69 = shl nsw i32 %68, 2
  %70 = sext i32 %69 to i64
  tail call void @llvm.memset.p0.i64(ptr align 1 %2, i8 105, i64 %70, i1 false)
  br label %wv_check_crc.exit.thread

wv_check_crc.exit.thread:                         ; preds = %51, %54, %67, %63, %57, %3
  %.030 = phi i32 [ -1094995529, %3 ], [ -1094995529, %57 ], [ 0, %63 ], [ 0, %67 ], [ 0, %54 ], [ 0, %51 ]
  ret i32 %.030
}